target datalayout = "e-m:e-p270:32:32-p271:32:32-p272:64:64-i64:64-i128:128-f80:128-n8:16:32:64-S128"
target triple = "x86_64-pc-linux-gnu"

%struct.AfterTriggersData = type { i32, ptr, %struct.AfterTriggerEventList, ptr, ptr, i32, i32, ptr, i32 }
%struct.AfterTriggerEventList = type { ptr, ptr, ptr }
%struct.ItemPointerData = type { %struct.BlockIdData, i16 }
%struct.BlockIdData = type { i16, i16 }
%struct.AfterTriggerEventData = type { i32, %struct.ItemPointerData, %struct.ItemPointerData, i32, i32 }
%struct.AfterTriggerSharedData = type { i32, i32, i32, i32, i32, ptr, ptr }
%struct.AfterTriggersQueryData = type { %struct.AfterTriggerEventList, ptr, ptr }
%struct.AfterTriggerEventChunk = type { ptr, ptr, ptr, ptr }
%struct.AfterTriggersTransData = type { ptr, %struct.AfterTriggerEventList, i32, i32 }

@afterTriggers = internal global %struct.AfterTriggersData zeroinitializer, align 8

; Function Attrs: nounwind uwtable
define internal void @afterTriggerFreeEventList(ptr noundef %0) #0 {
  %2 = alloca ptr, align 8
  %3 = alloca ptr, align 8
  store ptr %0, ptr %2, align 8
  call void @llvm.lifetime.start.p0(i64 8, ptr %3) #12
  br label %4

4:                                                ; preds = %9, %1
  %5 = load ptr, ptr %2, align 8
  %6 = getelementptr inbounds nuw %struct.AfterTriggerEventList, ptr %5, i32 0, i32 0
  %7 = load ptr, ptr %6, align 8
  store ptr %7, ptr %3, align 8
  %8 = icmp ne ptr %7, null
  br i1 %8, label %9, label %16

9:                                                ; preds = %4
  %10 = load ptr, ptr %3, align 8
  %11 = getelementptr inbounds nuw %struct.AfterTriggerEventChunk, ptr %10, i32 0, i32 0
  %12 = load ptr, ptr %11, align 8
  %13 = load ptr, ptr %2, align 8
  %14 = getelementptr inbounds nuw %struct.AfterTriggerEventList, ptr %13, i32 0, i32 0
  store ptr %12, ptr %14, align 8
  %15 = load ptr, ptr %3, align 8
  call void @pfree(ptr noundef %15)
  br label %4, !llvm.loop !76

16:                                               ; preds = %4
  %17 = load ptr, ptr %2, align 8
  %18 = getelementptr inbounds nuw %struct.AfterTriggerEventList, ptr %17, i32 0, i32 1
  store ptr null, ptr %18, align 8
  %19 = load ptr, ptr %2, align 8
  %20 = getelementptr inbounds nuw %struct.AfterTriggerEventList, ptr %19, i32 0, i32 2
  store ptr null, ptr %20, align 8
  call void @llvm.lifetime.end.p0(i64 8, ptr %3) #12
  ret void
}

; Function Attrs: nounwind uwtable
define internal void @afterTriggerRestoreEventList(ptr noundef %0, ptr noundef %1) #0 {
  %3 = alloca ptr, align 8
  %4 = alloca ptr, align 8
  %5 = alloca ptr, align 8
  %6 = alloca ptr, align 8
  store ptr %0, ptr %3, align 8
  store ptr %1, ptr %4, align 8
  call void @llvm.lifetime.start.p0(i64 8, ptr %5) #12
  call void @llvm.lifetime.start.p0(i64 8, ptr %6) #12
  %7 = load ptr, ptr %4, align 8
  %8 = getelementptr inbounds nuw %struct.AfterTriggerEventList, ptr %7, i32 0, i32 1
  %9 = load ptr, ptr %8, align 8
  %10 = icmp eq ptr %9, null
  br i1 %10, label %11, label %13

11:                                               ; preds = %2
  %12 = load ptr, ptr %3, align 8
  call void @afterTriggerFreeEventList(ptr noundef %12)
  br label %43

13:                                               ; preds = %2
  %14 = load ptr, ptr %3, align 8
  %15 = load ptr, ptr %4, align 8
  call void @llvm.memcpy.p0.p0.i64(ptr align 8 %14, ptr align 8 %15, i64 24, i1 false)
  %16 = load ptr, ptr %3, align 8
  %17 = getelementptr inbounds nuw %struct.AfterTriggerEventList, ptr %16, i32 0, i32 1
  %18 = load ptr, ptr %17, align 8
  %19 = getelementptr inbounds nuw %struct.AfterTriggerEventChunk, ptr %18, i32 0, i32 0
  %20 = load ptr, ptr %19, align 8
  store ptr %20, ptr %5, align 8
  br label %21

21:                                               ; preds = %29, %13
  %22 = load ptr, ptr %5, align 8
  %23 = icmp ne ptr %22, null
  br i1 %23, label %24, label %31

24:                                               ; preds = %21
  %25 = load ptr, ptr %5, align 8
  %26 = getelementptr inbounds nuw %struct.AfterTriggerEventChunk, ptr %25, i32 0, i32 0
  %27 = load ptr, ptr %26, align 8
  store ptr %27, ptr %6, align 8
  %28 = load ptr, ptr %5, align 8
  call void @pfree(ptr noundef %28)
  br label %29

29:                                               ; preds = %24
  %30 = load ptr, ptr %6, align 8
  store ptr %30, ptr %5, align 8
  br label %21, !llvm.loop !57

31:                                               ; preds = %21
  %32 = load ptr, ptr %3, align 8
  %33 = getelementptr inbounds nuw %struct.AfterTriggerEventList, ptr %32, i32 0, i32 1
  %34 = load ptr, ptr %33, align 8
  %35 = getelementptr inbounds nuw %struct.AfterTriggerEventChunk, ptr %34, i32 0, i32 0
  store ptr null, ptr %35, align 8
  %36 = load ptr, ptr %3, align 8
  %37 = getelementptr inbounds nuw %struct.AfterTriggerEventList, ptr %36, i32 0, i32 2
  %38 = load ptr, ptr %37, align 8
  %39 = load ptr, ptr %3, align 8
  %40 = getelementptr inbounds nuw %struct.AfterTriggerEventList, ptr %39, i32 0, i32 1
  %41 = load ptr, ptr %40, align 8
  %42 = getelementptr inbounds nuw %struct.AfterTriggerEventChunk, ptr %41, i32 0, i32 1
  store ptr %38, ptr %42, align 8
  br label %43

43:                                               ; preds = %31, %11
  call void @llvm.lifetime.end.p0(i64 8, ptr %6) #12
  call void @llvm.lifetime.end.p0(i64 8, ptr %5) #12
  ret void
}

; Function Attrs: nounwind uwtable
define dso_local void @AfterTriggerEndSubXact(i1 noundef zeroext %0) #0 {
  %2 = alloca i8, align 1
  %3 = alloca i32, align 4
  %4 = alloca ptr, align 8
  %5 = alloca ptr, align 8
  %6 = alloca ptr, align 8
  %7 = alloca i32, align 4
  %8 = alloca i32, align 4
  %9 = alloca ptr, align 8
  %10 = zext i1 %0 to i8
  store i8 %10, ptr %2, align 1
  call void @llvm.lifetime.start.p0(i64 4, ptr %3) #12
  %11 = call i32 @GetCurrentTransactionNestLevel()
  store i32 %11, ptr %3, align 4
  call void @llvm.lifetime.start.p0(i64 8, ptr %4) #12
  call void @llvm.lifetime.start.p0(i64 8, ptr %5) #12
  call void @llvm.lifetime.start.p0(i64 8, ptr %6) #12
  call void @llvm.lifetime.start.p0(i64 4, ptr %7) #12
  %12 = load i8, ptr %2, align 1, !range !4, !noundef !5
  %13 = trunc i8 %12 to i1
  br i1 %13, label %14, label %31

14:                                               ; preds = %1
  %15 = load ptr, ptr getelementptr inbounds nuw (%struct.AfterTriggersData, ptr @afterTriggers, i32 0, i32 7), align 8
  %16 = load i32, ptr %3, align 4
  %17 = sext i32 %16 to i64
  %18 = getelementptr inbounds %struct.AfterTriggersTransData, ptr %15, i64 %17
  %19 = getelementptr inbounds nuw %struct.AfterTriggersTransData, ptr %18, i32 0, i32 0
  %20 = load ptr, ptr %19, align 8
  store ptr %20, ptr %4, align 8
  %21 = load ptr, ptr %4, align 8
  %22 = icmp ne ptr %21, null
  br i1 %22, label %23, label %25

23:                                               ; preds = %14
  %24 = load ptr, ptr %4, align 8
  call void @pfree(ptr noundef %24)
  br label %25

25:                                               ; preds = %23, %14
  %26 = load ptr, ptr getelementptr inbounds nuw (%struct.AfterTriggersData, ptr @afterTriggers, i32 0, i32 7), align 8
  %27 = load i32, ptr %3, align 4
  %28 = sext i32 %27 to i64
  %29 = getelementptr inbounds %struct.AfterTriggersTransData, ptr %26, i64 %28
  %30 = getelementptr inbounds nuw %struct.AfterTriggersTransData, ptr %29, i32 0, i32 0
  store ptr null, ptr %30, align 8
  br label %159

31:                                               ; preds = %1
  %32 = load i32, ptr %3, align 4
  %33 = load i32, ptr getelementptr inbounds nuw (%struct.AfterTriggersData, ptr @afterTriggers, i32 0, i32 8), align 8
  %34 = icmp sge i32 %32, %33
  br i1 %34, label %35, label %36

35:                                               ; preds = %31
  store i32 1, ptr %8, align 4
  br label %160

36:                                               ; preds = %31
  br label %37

37:                                               ; preds = %55, %36
  %38 = load i32, ptr getelementptr inbounds nuw (%struct.AfterTriggersData, ptr @afterTriggers, i32 0, i32 5), align 8
  %39 = load ptr, ptr getelementptr inbounds nuw (%struct.AfterTriggersData, ptr @afterTriggers, i32 0, i32 7), align 8
  %40 = load i32, ptr %3, align 4
  %41 = sext i32 %40 to i64
  %42 = getelementptr inbounds %struct.AfterTriggersTransData, ptr %39, i64 %41
  %43 = getelementptr inbounds nuw %struct.AfterTriggersTransData, ptr %42, i32 0, i32 2
  %44 = load i32, ptr %43, align 8
  %45 = icmp sgt i32 %38, %44
  br i1 %45, label %46, label %58

46:                                               ; preds = %37
  %47 = load i32, ptr getelementptr inbounds nuw (%struct.AfterTriggersData, ptr @afterTriggers, i32 0, i32 5), align 8
  %48 = load i32, ptr getelementptr inbounds nuw (%struct.AfterTriggersData, ptr @afterTriggers, i32 0, i32 6), align 4
  %49 = icmp slt i32 %47, %48
  br i1 %49, label %50, label %55

50:                                               ; preds = %46
  %51 = load ptr, ptr getelementptr inbounds nuw (%struct.AfterTriggersData, ptr @afterTriggers, i32 0, i32 4), align 8
  %52 = load i32, ptr getelementptr inbounds nuw (%struct.AfterTriggersData, ptr @afterTriggers, i32 0, i32 5), align 8
  %53 = sext i32 %52 to i64
  %54 = getelementptr inbounds %struct.AfterTriggersQueryData, ptr %51, i64 %53
  call void @AfterTriggerFreeQuery(ptr noundef %54)
  br label %55

55:                                               ; preds = %50, %46
  %56 = load i32, ptr getelementptr inbounds nuw (%struct.AfterTriggersData, ptr @afterTriggers, i32 0, i32 5), align 8
  %57 = add i32 %56, -1
  store i32 %57, ptr getelementptr inbounds nuw (%struct.AfterTriggersData, ptr @afterTriggers, i32 0, i32 5), align 8
  br label %37, !llvm.loop !54

58:                                               ; preds = %37
  %59 = load ptr, ptr getelementptr inbounds nuw (%struct.AfterTriggersData, ptr @afterTriggers, i32 0, i32 7), align 8
  %60 = load i32, ptr %3, align 4
  %61 = sext i32 %60 to i64
  %62 = getelementptr inbounds %struct.AfterTriggersTransData, ptr %59, i64 %61
  %63 = getelementptr inbounds nuw %struct.AfterTriggersTransData, ptr %62, i32 0, i32 1
  call void @afterTriggerRestoreEventList(ptr noundef getelementptr inbounds nuw (%struct.AfterTriggersData, ptr @afterTriggers, i32 0, i32 2), ptr noundef %63)
  %64 = load ptr, ptr getelementptr inbounds nuw (%struct.AfterTriggersData, ptr @afterTriggers, i32 0, i32 7), align 8
  %65 = load i32, ptr %3, align 4
  %66 = sext i32 %65 to i64
  %67 = getelementptr inbounds %struct.AfterTriggersTransData, ptr %64, i64 %66
  %68 = getelementptr inbounds nuw %struct.AfterTriggersTransData, ptr %67, i32 0, i32 0
  %69 = load ptr, ptr %68, align 8
  store ptr %69, ptr %4, align 8
  %70 = load ptr, ptr %4, align 8
  %71 = icmp ne ptr %70, null
  br i1 %71, label %72, label %75

72:                                               ; preds = %58
  %73 = load ptr, ptr getelementptr inbounds nuw (%struct.AfterTriggersData, ptr @afterTriggers, i32 0, i32 1), align 8
  call void @pfree(ptr noundef %73)
  %74 = load ptr, ptr %4, align 8
  store ptr %74, ptr getelementptr inbounds nuw (%struct.AfterTriggersData, ptr @afterTriggers, i32 0, i32 1), align 8
  br label %75

75:                                               ; preds = %72, %58
  %76 = load ptr, ptr getelementptr inbounds nuw (%struct.AfterTriggersData, ptr @afterTriggers, i32 0, i32 7), align 8
  %77 = load i32, ptr %3, align 4
  %78 = sext i32 %77 to i64
  %79 = getelementptr inbounds %struct.AfterTriggersTransData, ptr %76, i64 %78
  %80 = getelementptr inbounds nuw %struct.AfterTriggersTransData, ptr %79, i32 0, i32 0
  store ptr null, ptr %80, align 8
  %81 = load ptr, ptr getelementptr inbounds nuw (%struct.AfterTriggersData, ptr @afterTriggers, i32 0, i32 7), align 8
  %82 = load i32, ptr %3, align 4
  %83 = sext i32 %82 to i64
  %84 = getelementptr inbounds %struct.AfterTriggersTransData, ptr %81, i64 %83
  %85 = getelementptr inbounds nuw %struct.AfterTriggersTransData, ptr %84, i32 0, i32 3
  %86 = load i32, ptr %85, align 4
  store i32 %86, ptr %7, align 4
  %87 = load ptr, ptr getelementptr inbounds nuw (%struct.AfterTriggersData, ptr @afterTriggers, i32 0, i32 2), align 8
  store ptr %87, ptr %6, align 8
  br label %88

88:                                               ; preds = %154, %75
  %89 = load ptr, ptr %6, align 8
  %90 = icmp ne ptr %89, null
  br i1 %90, label %91, label %158

91:                                               ; preds = %88
  %92 = load ptr, ptr %6, align 8
  %93 = getelementptr inbounds nuw i8, ptr %92, i64 32
  store ptr %93, ptr %5, align 8
  br label %94

94:                                               ; preds = %150, %91
  %95 = load ptr, ptr %5, align 8
  %96 = load ptr, ptr %6, align 8
  %97 = getelementptr inbounds nuw %struct.AfterTriggerEventChunk, ptr %96, i32 0, i32 1
  %98 = load ptr, ptr %97, align 8
  %99 = icmp ult ptr %95, %98
  br i1 %99, label %100, label %153

100:                                              ; preds = %94
  call void @llvm.lifetime.start.p0(i64 8, ptr %9) #12
  %101 = load ptr, ptr %5, align 8
  %102 = load ptr, ptr %5, align 8
  %103 = getelementptr inbounds nuw %struct.AfterTriggerEventData, ptr %102, i32 0, i32 0
  %104 = load i32, ptr %103, align 4
  %105 = and i32 %104, 134217727
  %106 = zext i32 %105 to i64
  %107 = getelementptr inbounds nuw i8, ptr %101, i64 %106
  store ptr %107, ptr %9, align 8
  %108 = load ptr, ptr %5, align 8
  %109 = getelementptr inbounds nuw %struct.AfterTriggerEventData, ptr %108, i32 0, i32 0
  %110 = load i32, ptr %109, align 4
  %111 = and i32 %110, -1073741824
  %112 = icmp ne i32 %111, 0
  br i1 %112, label %113, label %125

113:                                              ; preds = %100
  %114 = load ptr, ptr %9, align 8
  %115 = getelementptr inbounds nuw %struct.AfterTriggerSharedData, ptr %114, i32 0, i32 4
  %116 = load i32, ptr %115, align 8
  %117 = load i32, ptr %7, align 4
  %118 = icmp uge i32 %116, %117
  br i1 %118, label %119, label %124

119:                                              ; preds = %113
  %120 = load ptr, ptr %5, align 8
  %121 = getelementptr inbounds nuw %struct.AfterTriggerEventData, ptr %120, i32 0, i32 0
  %122 = load i32, ptr %121, align 4
  %123 = and i32 %122, 1073741823
  store i32 %123, ptr %121, align 4
  br label %124

124:                                              ; preds = %119, %113
  br label %125

125:                                              ; preds = %124, %100
  call void @llvm.lifetime.end.p0(i64 8, ptr %9) #12
  br label %126

126:                                              ; preds = %125
  %127 = load ptr, ptr %5, align 8
  %128 = load ptr, ptr %5, align 8
  %129 = getelementptr inbounds nuw %struct.AfterTriggerEventData, ptr %128, i32 0, i32 0
  %130 = load i32, ptr %129, align 4
  %131 = and i32 %130, 939524096
  %132 = icmp eq i32 %131, 134217728
  br i1 %132, label %133, label %134

133:                                              ; preds = %126
  br label %150

134:                                              ; preds = %126
  %135 = load ptr, ptr %5, align 8
  %136 = getelementptr inbounds nuw %struct.AfterTriggerEventData, ptr %135, i32 0, i32 0
  %137 = load i32, ptr %136, align 4
  %138 = and i32 %137, 939524096
  %139 = icmp eq i32 %138, 805306368
  br i1 %139, label %140, label %141

140:                                              ; preds = %134
  br label %148

141:                                              ; preds = %134
  %142 = load ptr, ptr %5, align 8
  %143 = getelementptr inbounds nuw %struct.AfterTriggerEventData, ptr %142, i32 0, i32 0
  %144 = load i32, ptr %143, align 4
  %145 = and i32 %144, 939524096
  %146 = icmp eq i32 %145, 268435456
  %147 = select i1 %146, i64 12, i64 4
  br label %148

148:                                              ; preds = %141, %140
  %149 = phi i64 [ 16, %140 ], [ %147, %141 ]
  br label %150

150:                                              ; preds = %148, %133
  %151 = phi i64 [ 24, %133 ], [ %149, %148 ]
  %152 = getelementptr inbounds nuw i8, ptr %127, i64 %151
  store ptr %152, ptr %5, align 8
  br label %94, !llvm.loop !55

153:                                              ; preds = %94
  br label %154

154:                                              ; preds = %153
  %155 = load ptr, ptr %6, align 8
  %156 = getelementptr inbounds nuw %struct.AfterTriggerEventChunk, ptr %155, i32 0, i32 0
  %157 = load ptr, ptr %156, align 8
  store ptr %157, ptr %6, align 8
  br label %88, !llvm.loop !56

158:                                              ; preds = %88
  br label %159

159:                                              ; preds = %158, %25
  store i32 0, ptr %8, align 4
  br label %160

160:                                              ; preds = %159, %35
  call void @llvm.lifetime.end.p0(i64 4, ptr %7) #12
  call void @llvm.lifetime.end.p0(i64 8, ptr %6) #12
  call void @llvm.lifetime.end.p0(i64 8, ptr %5) #12
  call void @llvm.lifetime.end.p0(i64 8, ptr %4) #12
  call void @llvm.lifetime.end.p0(i64 4, ptr %3) #12
  %161 = load i32, ptr %8, align 4
  switch i32 %161, label %163 [
    i32 0, label %162
    i32 1, label %162
  ]

162:                                              ; preds = %160, %160
  ret void

163:                                              ; preds = %160
  unreachable
}