; Function Attrs: nounwind uwtable
define dso_local void @AfterTriggerEndSubXact(i1 noundef zeroext %0) local_unnamed_addr #0 {
  %2 = tail call i32 @GetCurrentTransactionNestLevel() #16
  br i1 %0, label %3, label %12

3:                                                ; preds = %1
  %4 = load ptr, ptr getelementptr inbounds nuw (i8, ptr @afterTriggers, i64 64), align 8
  %5 = sext i32 %2 to i64
  %6 = getelementptr inbounds %struct.AfterTriggersTransData, ptr %4, i64 %5
  %7 = load ptr, ptr %6, align 8
  %.not36 = icmp eq ptr %7, null
  br i1 %.not36, label %9, label %8

8:                                                ; preds = %3
  tail call void @pfree(ptr noundef nonnull %7) #16
  %.pre53 = load ptr, ptr getelementptr inbounds nuw (i8, ptr @afterTriggers, i64 64), align 8
  br label %9

9:                                                ; preds = %8, %3
  %10 = phi ptr [ %.pre53, %8 ], [ %4, %3 ]
  %11 = getelementptr inbounds %struct.AfterTriggersTransData, ptr %10, i64 %5
  store ptr null, ptr %11, align 8
  br label %.loopexit37

12:                                               ; preds = %1
  %13 = load i32, ptr getelementptr inbounds nuw (i8, ptr @afterTriggers, i64 72), align 8
  %.not = icmp slt i32 %2, %13
  br i1 %.not, label %.preheader, label %.loopexit37

.preheader:                                       ; preds = %12
  %14 = sext i32 %2 to i64
  %15 = load i32, ptr getelementptr inbounds nuw (i8, ptr @afterTriggers, i64 56), align 8
  %16 = load ptr, ptr getelementptr inbounds nuw (i8, ptr @afterTriggers, i64 64), align 8
  %17 = getelementptr inbounds %struct.AfterTriggersTransData, ptr %16, i64 %14
  %18 = getelementptr inbounds nuw i8, ptr %17, i64 32
  %19 = load i32, ptr %18, align 8
  %20 = icmp sgt i32 %15, %19
  br i1 %20, label %.lr.ph.preheader, label %._crit_edge

.lr.ph.preheader:                                 ; preds = %.preheader
  %.pre49 = load i32, ptr getelementptr inbounds nuw (i8, ptr @afterTriggers, i64 60), align 4
  br label %.lr.ph

.lr.ph:                                           ; preds = %.lr.ph.preheader, %29
  %21 = phi ptr [ %30, %29 ], [ %16, %.lr.ph.preheader ]
  %22 = phi i32 [ %32, %29 ], [ %.pre49, %.lr.ph.preheader ]
  %23 = phi i32 [ %33, %29 ], [ %15, %.lr.ph.preheader ]
  %24 = icmp slt i32 %23, %22
  br i1 %24, label %25, label %29

25:                                               ; preds = %.lr.ph
  %26 = load ptr, ptr getelementptr inbounds nuw (i8, ptr @afterTriggers, i64 48), align 8
  %27 = sext i32 %23 to i64
  %28 = getelementptr inbounds %struct.AfterTriggersQueryData, ptr %26, i64 %27
  tail call fastcc void @AfterTriggerFreeQuery(ptr noundef %28)
  %.pre = load i32, ptr getelementptr inbounds nuw (i8, ptr @afterTriggers, i64 60), align 4
  %.pre50 = load i32, ptr getelementptr inbounds nuw (i8, ptr @afterTriggers, i64 56), align 8
  %.pre51 = load ptr, ptr getelementptr inbounds nuw (i8, ptr @afterTriggers, i64 64), align 8
  br label %29

29:                                               ; preds = %25, %.lr.ph
  %30 = phi ptr [ %.pre51, %25 ], [ %21, %.lr.ph ]
  %31 = phi i32 [ %.pre50, %25 ], [ %23, %.lr.ph ]
  %32 = phi i32 [ %.pre, %25 ], [ %22, %.lr.ph ]
  %33 = add i32 %31, -1
  store i32 %33, ptr getelementptr inbounds nuw (i8, ptr @afterTriggers, i64 56), align 8
  %34 = getelementptr inbounds %struct.AfterTriggersTransData, ptr %30, i64 %14
  %35 = getelementptr inbounds nuw i8, ptr %34, i64 32
  %36 = load i32, ptr %35, align 8
  %37 = icmp sgt i32 %33, %36
  br i1 %37, label %.lr.ph, label %._crit_edge, !llvm.loop !51

._crit_edge:                                      ; preds = %29, %.preheader
  %.lcssa = phi ptr [ %17, %.preheader ], [ %34, %29 ]
  %38 = getelementptr inbounds nuw i8, ptr %.lcssa, i64 16
  %39 = load ptr, ptr %38, align 8
  %40 = icmp eq ptr %39, null
  br i1 %40, label %41, label %46

41:                                               ; preds = %._crit_edge
  %42 = load ptr, ptr getelementptr inbounds nuw (i8, ptr @afterTriggers, i64 16), align 8
  %.not6.i.i = icmp eq ptr %42, null
  br i1 %.not6.i.i, label %afterTriggerFreeEventList.exit.i, label %.lr.ph.i.i

.lr.ph.i.i:                                       ; preds = %41, %.lr.ph.i.i
  %43 = phi ptr [ %45, %.lr.ph.i.i ], [ %42, %41 ]
  %44 = load ptr, ptr %43, align 8
  store ptr %44, ptr getelementptr inbounds nuw (i8, ptr @afterTriggers, i64 16), align 8
  tail call void @pfree(ptr noundef nonnull %43) #16
  %45 = load ptr, ptr getelementptr inbounds nuw (i8, ptr @afterTriggers, i64 16), align 8
  %.not.i.i = icmp eq ptr %45, null
  br i1 %.not.i.i, label %afterTriggerFreeEventList.exit.i, label %.lr.ph.i.i, !llvm.loop !49

afterTriggerFreeEventList.exit.i:                 ; preds = %.lr.ph.i.i, %41
  tail call void @llvm.memset.p0.i64(ptr noundef nonnull align 8 dereferenceable(16) getelementptr inbounds nuw (i8, ptr @afterTriggers, i64 24), i8 0, i64 16, i1 false)
  br label %afterTriggerRestoreEventList.exit

46:                                               ; preds = %._crit_edge
  %47 = getelementptr inbounds nuw i8, ptr %.lcssa, i64 8
  tail call void @llvm.memcpy.p0.p0.i64(ptr noundef nonnull align 8 dereferenceable(24) getelementptr inbounds nuw (i8, ptr @afterTriggers, i64 16), ptr noundef nonnull readonly align 8 dereferenceable(24) %47, i64 24, i1 false)
  %48 = load ptr, ptr getelementptr inbounds nuw (i8, ptr @afterTriggers, i64 24), align 8
  %49 = load ptr, ptr %48, align 8
  %.not1.i = icmp eq ptr %49, null
  br i1 %.not1.i, label %._crit_edge.i, label %.lr.ph.i

.lr.ph.i:                                         ; preds = %46, %.lr.ph.i
  %.02.i = phi ptr [ %50, %.lr.ph.i ], [ %49, %46 ]
  %50 = load ptr, ptr %.02.i, align 8
  tail call void @pfree(ptr noundef nonnull %.02.i) #16
  %.not.i = icmp eq ptr %50, null
  br i1 %.not.i, label %._crit_edge.loopexit.i, label %.lr.ph.i, !llvm.loop !52

._crit_edge.loopexit.i:                           ; preds = %.lr.ph.i
  %.pre.i = load ptr, ptr getelementptr inbounds nuw (i8, ptr @afterTriggers, i64 24), align 8
  br label %._crit_edge.i

._crit_edge.i:                                    ; preds = %._crit_edge.loopexit.i, %46
  %51 = phi ptr [ %.pre.i, %._crit_edge.loopexit.i ], [ %48, %46 ]
  store ptr null, ptr %51, align 8
  %52 = load ptr, ptr getelementptr inbounds nuw (i8, ptr @afterTriggers, i64 32), align 8
  %53 = load ptr, ptr getelementptr inbounds nuw (i8, ptr @afterTriggers, i64 24), align 8
  %54 = getelementptr inbounds nuw i8, ptr %53, i64 8
  store ptr %52, ptr %54, align 8
  br label %afterTriggerRestoreEventList.exit

afterTriggerRestoreEventList.exit:                ; preds = %afterTriggerFreeEventList.exit.i, %._crit_edge.i
  %55 = load ptr, ptr getelementptr inbounds nuw (i8, ptr @afterTriggers, i64 64), align 8
  %56 = getelementptr inbounds %struct.AfterTriggersTransData, ptr %55, i64 %14
  %57 = load ptr, ptr %56, align 8
  %.not32 = icmp eq ptr %57, null
  br i1 %.not32, label %60, label %58

58:                                               ; preds = %afterTriggerRestoreEventList.exit
  %59 = load ptr, ptr getelementptr inbounds nuw (i8, ptr @afterTriggers, i64 8), align 8
  tail call void @pfree(ptr noundef %59) #16
  store ptr %57, ptr getelementptr inbounds nuw (i8, ptr @afterTriggers, i64 8), align 8
  %.pre52 = load ptr, ptr getelementptr inbounds nuw (i8, ptr @afterTriggers, i64 64), align 8
  br label %60

60:                                               ; preds = %58, %afterTriggerRestoreEventList.exit
  %61 = phi ptr [ %.pre52, %58 ], [ %55, %afterTriggerRestoreEventList.exit ]
  %62 = getelementptr inbounds %struct.AfterTriggersTransData, ptr %61, i64 %14
  store ptr null, ptr %62, align 8
  %63 = load ptr, ptr getelementptr inbounds nuw (i8, ptr @afterTriggers, i64 64), align 8
  %64 = getelementptr inbounds %struct.AfterTriggersTransData, ptr %63, i64 %14, i32 3
  %65 = load i32, ptr %64, align 4
  %.02743 = load ptr, ptr getelementptr inbounds nuw (i8, ptr @afterTriggers, i64 16), align 8
  %.not3344 = icmp eq ptr %.02743, null
  br i1 %.not3344, label %.loopexit37, label %.lr.ph47

.loopexit:                                        ; preds = %85, %.lr.ph47
  %.027 = load ptr, ptr %.02745, align 8
  %.not33 = icmp eq ptr %.027, null
  br i1 %.not33, label %.loopexit37, label %.lr.ph47, !llvm.loop !53

.lr.ph47:                                         ; preds = %60, %.loopexit
  %.02745 = phi ptr [ %.027, %.loopexit ], [ %.02743, %60 ]
  %66 = getelementptr inbounds nuw i8, ptr %.02745, i64 32
  %67 = getelementptr inbounds nuw i8, ptr %.02745, i64 8
  %68 = load ptr, ptr %67, align 8
  %69 = icmp ult ptr %66, %68
  br i1 %69, label %.lr.ph42, label %.loopexit

.lr.ph42:                                         ; preds = %.lr.ph47, %85
  %.040 = phi ptr [ %87, %85 ], [ %66, %.lr.ph47 ]
  %70 = load i32, ptr %.040, align 4
  %.not34 = icmp ult i32 %70, 1073741824
  br i1 %.not34, label %79, label %71

71:                                               ; preds = %.lr.ph42
  %72 = and i32 %70, 134217727
  %73 = zext nneg i32 %72 to i64
  %74 = getelementptr inbounds nuw i8, ptr %.040, i64 %73
  %75 = getelementptr inbounds nuw i8, ptr %74, i64 16
  %76 = load i32, ptr %75, align 8
  %.not35 = icmp ult i32 %76, %65
  br i1 %.not35, label %79, label %77

77:                                               ; preds = %71
  %78 = and i32 %70, 1073741823
  store i32 %78, ptr %.040, align 4
  br label %79

79:                                               ; preds = %71, %77, %.lr.ph42
  %80 = phi i32 [ %70, %71 ], [ %78, %77 ], [ %70, %.lr.ph42 ]
  %81 = and i32 %80, 939524096
  switch i32 %81, label %82 [
    i32 134217728, label %85
    i32 805306368, label %.fold.split
  ]

82:                                               ; preds = %79
  %83 = icmp eq i32 %81, 268435456
  %84 = select i1 %83, i64 12, i64 4
  br label %85

.fold.split:                                      ; preds = %79
  br label %85

85:                                               ; preds = %79, %.fold.split, %82
  %86 = phi i64 [ 24, %79 ], [ %84, %82 ], [ 16, %.fold.split ]
  %87 = getelementptr inbounds nuw i8, ptr %.040, i64 %86
  %88 = load ptr, ptr %67, align 8
  %89 = icmp ult ptr %87, %88
  br i1 %89, label %.lr.ph42, label %.loopexit, !llvm.loop !54

.loopexit37:                                      ; preds = %.loopexit, %60, %9, %12
  ret void
}